target datalayout = "e-m:e-p270:32:32-p271:32:32-p272:64:64-i64:64-i128:128-f80:128-n8:16:32:64-S128"
target triple = "x86_64-pc-linux-gnu"

%struct.paird = type { double, double }

; Function Attrs: nounwind uwtable
define internal i32 @chancmpid(ptr noundef %0, ptr noundef %1) #0 {
  %3 = alloca i32, align 4
  %4 = alloca ptr, align 8
  %5 = alloca ptr, align 8
  %6 = alloca ptr, align 8
  %7 = alloca ptr, align 8
  %8 = alloca i32, align 4
  store ptr %0, ptr %4, align 8, !tbaa !10
  store ptr %1, ptr %5, align 8, !tbaa !10
  call void @llvm.lifetime.start.p0(i64 8, ptr %6) #12
  %9 = load ptr, ptr %4, align 8, !tbaa !10
  store ptr %9, ptr %6, align 8, !tbaa !10
  call void @llvm.lifetime.start.p0(i64 8, ptr %7) #12
  %10 = load ptr, ptr %5, align 8, !tbaa !10
  store ptr %10, ptr %7, align 8, !tbaa !10
  %11 = load ptr, ptr %6, align 8, !tbaa !10
  %12 = getelementptr inbounds nuw %struct.paird, ptr %11, i32 0, i32 0
  %13 = load double, ptr %12, align 8, !tbaa !166
  %14 = load ptr, ptr %7, align 8, !tbaa !10
  %15 = getelementptr inbounds nuw %struct.paird, ptr %14, i32 0, i32 0
  %16 = load double, ptr %15, align 8, !tbaa !166
  %17 = fcmp ogt double %13, %16
  br i1 %17, label %18, label %28

18:                                               ; preds = %2
  %19 = load ptr, ptr %6, align 8, !tbaa !10
  %20 = getelementptr inbounds nuw %struct.paird, ptr %19, i32 0, i32 1
  %21 = load double, ptr %20, align 8, !tbaa !167
  %22 = load ptr, ptr %7, align 8, !tbaa !10
  %23 = getelementptr inbounds nuw %struct.paird, ptr %22, i32 0, i32 1
  %24 = load double, ptr %23, align 8, !tbaa !167
  %25 = fcmp ole double %21, %24
  br i1 %25, label %26, label %27

26:                                               ; preds = %18
  store i32 0, ptr %3, align 4
  store i32 1, ptr %8, align 4
  br label %47

27:                                               ; preds = %18
  store i32 1, ptr %3, align 4
  store i32 1, ptr %8, align 4
  br label %47

28:                                               ; preds = %2
  %29 = load ptr, ptr %6, align 8, !tbaa !10
  %30 = getelementptr inbounds nuw %struct.paird, ptr %29, i32 0, i32 0
  %31 = load double, ptr %30, align 8, !tbaa !166
  %32 = load ptr, ptr %7, align 8, !tbaa !10
  %33 = getelementptr inbounds nuw %struct.paird, ptr %32, i32 0, i32 0
  %34 = load double, ptr %33, align 8, !tbaa !166
  %35 = fcmp olt double %31, %34
  br i1 %35, label %36, label %46

36:                                               ; preds = %28
  %37 = load ptr, ptr %6, align 8, !tbaa !10
  %38 = getelementptr inbounds nuw %struct.paird, ptr %37, i32 0, i32 1
  %39 = load double, ptr %38, align 8, !tbaa !167
  %40 = load ptr, ptr %7, align 8, !tbaa !10
  %41 = getelementptr inbounds nuw %struct.paird, ptr %40, i32 0, i32 1
  %42 = load double, ptr %41, align 8, !tbaa !167
  %43 = fcmp oge double %39, %42
  br i1 %43, label %44, label %45

44:                                               ; preds = %36
  store i32 0, ptr %3, align 4
  store i32 1, ptr %8, align 4
  br label %47

45:                                               ; preds = %36
  store i32 -1, ptr %3, align 4
  store i32 1, ptr %8, align 4
  br label %47

46:                                               ; preds = %28
  store i32 0, ptr %3, align 4
  store i32 1, ptr %8, align 4
  br label %47

47:                                               ; preds = %46, %45, %44, %27, %26
  call void @llvm.lifetime.end.p0(i64 8, ptr %7) #12
  call void @llvm.lifetime.end.p0(i64 8, ptr %6) #12
  %48 = load i32, ptr %3, align 4
  ret i32 %48
}