; Function Attrs: mustprogress nofree norecurse nosync nounwind willreturn memory(argmem: read) uwtable
define internal range(i32 -1, 2) i32 @chancmpid(ptr noundef readonly captures(none) %0, ptr noundef readonly captures(none) %1) #3 {
  %3 = load double, ptr %0, align 8, !tbaa !153
  %4 = load double, ptr %1, align 8, !tbaa !153
  %5 = fcmp ogt double %3, %4
  br i1 %5, label %6, label %12

6:                                                ; preds = %2
  %7 = getelementptr inbounds nuw i8, ptr %0, i64 8
  %8 = load double, ptr %7, align 8, !tbaa !154
  %9 = getelementptr inbounds nuw i8, ptr %1, i64 8
  %10 = load double, ptr %9, align 8, !tbaa !154
  %11 = fcmp ugt double %8, %10
  %. = zext i1 %11 to i32
  br label %20

12:                                               ; preds = %2
  %13 = fcmp olt double %3, %4
  br i1 %13, label %14, label %20

14:                                               ; preds = %12
  %15 = getelementptr inbounds nuw i8, ptr %0, i64 8
  %16 = load double, ptr %15, align 8, !tbaa !154
  %17 = getelementptr inbounds nuw i8, ptr %1, i64 8
  %18 = load double, ptr %17, align 8, !tbaa !154
  %19 = fcmp ult double %16, %18
  %.12 = sext i1 %19 to i32
  br label %20

20:                                               ; preds = %12, %14, %6
  %.0 = phi i32 [ %., %6 ], [ %.12, %14 ], [ 0, %12 ]
  ret i32 %.0
}